; Function Attrs: mustprogress uwtable
define void @_ZN8nanobind6detail16getitem_or_raiseEP7_objectPKcPS2_(ptr noundef %0, ptr noundef %1, ptr noundef captures(none) %2) local_unnamed_addr #15 {
  %4 = load ptr, ptr %2, align 8
  %.not = icmp eq ptr %4, null
  br i1 %.not, label %5, label %15

5:                                                ; preds = %3
  %6 = tail call ptr @PyUnicode_FromString(ptr noundef %1)
  %.not10 = icmp eq ptr %6, null
  br i1 %.not10, label %7, label %8

7:                                                ; preds = %5
  tail call void @_ZN8nanobind6detail18raise_python_errorEv() #28
  unreachable

8:                                                ; preds = %5
  %9 = tail call ptr @PyObject_GetItem(ptr noundef %0, ptr noundef nonnull %6)
  %10 = load i64, ptr %6, align 8
  %11 = add nsw i64 %10, -1
  store i64 %11, ptr %6, align 8
  %.not.i = icmp eq i64 %11, 0
  br i1 %.not.i, label %12, label %_ZL10_Py_DECREFP7_object.exit

12:                                               ; preds = %8
  tail call void @_Py_Dealloc(ptr noundef nonnull %6)
  br label %_ZL10_Py_DECREFP7_object.exit

_ZL10_Py_DECREFP7_object.exit:                    ; preds = %8, %12
  %.not11 = icmp eq ptr %9, null
  br i1 %.not11, label %13, label %14

13:                                               ; preds = %_ZL10_Py_DECREFP7_object.exit
  tail call void @_ZN8nanobind6detail18raise_python_errorEv() #28
  unreachable

14:                                               ; preds = %_ZL10_Py_DECREFP7_object.exit
  store ptr %9, ptr %2, align 8
  br label %15

15:                                               ; preds = %3, %14
  ret void
}